; Function Attrs: nofree norecurse nosync nounwind memory(write, argmem: readwrite, inaccessiblemem: none) uwtable
define hidden void @AnyIntSetParallelogram(ptr nocapture noundef readonly %0, i32 noundef %1, i32 noundef %2, i32 noundef %3, i32 noundef %4, i64 noundef %5, i64 noundef %6, i64 noundef %7, i64 noundef %8, i32 noundef %9, ptr nocapture readnone %10, ptr nocapture readnone %11) #0 {
  %13 = getelementptr inbounds i8, ptr %0, i64 32
  %14 = load i32, ptr %13, align 8
  %15 = sext i32 %14 to i64
  %16 = icmp slt i32 %2, %4
  br i1 %16, label %.lr.ph43.preheader, label %._crit_edge44

.lr.ph43.preheader:                               ; preds = %12
  %17 = sext i32 %2 to i64
  %18 = mul nsw i64 %15, %17
  %19 = getelementptr inbounds i8, ptr %0, i64 16
  %20 = load ptr, ptr %19, align 8
  %21 = ptrtoint ptr %20 to i64
  %22 = add nsw i64 %18, %21
  %23 = sext i32 %1 to i64
  br label %.lr.ph43

.lr.ph43:                                         ; preds = %.lr.ph43.preheader, %._crit_edge
  %.027.in40 = phi i64 [ %33, %._crit_edge ], [ %22, %.lr.ph43.preheader ]
  %.02839 = phi i32 [ %36, %._crit_edge ], [ %2, %.lr.ph43.preheader ]
  %.02938 = phi i64 [ %34, %._crit_edge ], [ %5, %.lr.ph43.preheader ]
  %.03037 = phi i64 [ %35, %._crit_edge ], [ %7, %.lr.ph43.preheader ]
  %24 = lshr i64 %.02938, 32
  %25 = trunc nuw i64 %24 to i32
  %.02741 = inttoptr i64 %.027.in40 to ptr
  %26 = lshr i64 %.03037, 32
  %27 = trunc nuw i64 %26 to i32
  %spec.select = tail call i32 @llvm.smax.i32(i32 %25, i32 %1)
  %.0 = tail call i32 @llvm.smin.i32(i32 %27, i32 %3)
  %28 = icmp slt i32 %spec.select, %.0
  br i1 %28, label %.lr.ph.preheader, label %._crit_edge

.lr.ph.preheader:                                 ; preds = %.lr.ph43
  %29 = ashr i64 %.02938, 32
  %smax = tail call i64 @llvm.smax.i64(i64 %23, i64 %29)
  %30 = sext i32 %.0 to i64
  br label %.lr.ph

.lr.ph:                                           ; preds = %.lr.ph.preheader, %.lr.ph
  %indvars.iv = phi i64 [ %smax, %.lr.ph.preheader ], [ %indvars.iv.next, %.lr.ph ]
  %31 = getelementptr inbounds i32, ptr %.02741, i64 %indvars.iv
  store i32 %9, ptr %31, align 4
  %indvars.iv.next = add nsw i64 %indvars.iv, 1
  %32 = icmp slt i64 %indvars.iv.next, %30
  br i1 %32, label %.lr.ph, label %._crit_edge, !llvm.loop !12

._crit_edge:                                      ; preds = %.lr.ph, %.lr.ph43
  %33 = add nsw i64 %.027.in40, %15
  %34 = add nsw i64 %.02938, %6
  %35 = add nsw i64 %.03037, %8
  %36 = add nsw i32 %.02839, 1
  %exitcond.not = icmp eq i32 %36, %4
  br i1 %exitcond.not, label %._crit_edge44, label %.lr.ph43, !llvm.loop !13

._crit_edge44:                                    ; preds = %._crit_edge, %12
  ret void
}